; ModuleID = '35/1999.c'
source_filename = "35/1999.c"
target datalayout = "e-m:e-p270:32:32-p271:32:32-p272:64:64-i64:64-f80:128-n8:16:32:64-S128"
target triple = "x86_64-pc-linux-gnu"

@.str = private unnamed_addr constant [6 x i8] c"%d,%d\00", align 1
@.str.1 = private unnamed_addr constant [3 x i8] c"%d\00", align 1
@.str.2 = private unnamed_addr constant [7 x i8] c"%d+%d\0A\00", align 1
@.str.3 = private unnamed_addr constant [3 x i8] c"No\00", align 1

; Function Attrs: noinline nounwind uwtable
define dso_local void @main() #0 {
  %1 = alloca [10 x [10 x i32]], align 16
  %2 = alloca i32, align 4
  %3 = alloca i32, align 4
  %4 = alloca i32, align 4
  %5 = alloca i32, align 4
  %6 = call i32 (i8*, ...) @__isoc99_scanf(i8* getelementptr inbounds ([6 x i8], [6 x i8]* @.str, i64 0, i64 0), i32* %2, i32* %3)
  store i32 0, i32* %4, align 4
  br label %7

7:                                                ; preds = %28, %0
  %8 = load i32, i32* %4, align 4
  %9 = load i32, i32* %2, align 4
  %10 = icmp slt i32 %8, %9
  br i1 %10, label %11, label %31

11:                                               ; preds = %7
  store i32 0, i32* %5, align 4
  br label %12

12:                                               ; preds = %24, %11
  %13 = load i32, i32* %5, align 4
  %14 = load i32, i32* %3, align 4
  %15 = icmp slt i32 %13, %14
  br i1 %15, label %16, label %27

16:                                               ; preds = %12
  %17 = load i32, i32* %4, align 4
  %18 = sext i32 %17 to i64
  %19 = getelementptr inbounds [10 x [10 x i32]], [10 x [10 x i32]]* %1, i64 0, i64 %18
  %20 = load i32, i32* %5, align 4
  %21 = sext i32 %20 to i64
  %22 = getelementptr inbounds [10 x i32], [10 x i32]* %19, i64 0, i64 %21
  %23 = call i32 (i8*, ...) @__isoc99_scanf(i8* getelementptr inbounds ([3 x i8], [3 x i8]* @.str.1, i64 0, i64 0), i32* %22)
  br label %24

24:                                               ; preds = %16
  %25 = load i32, i32* %5, align 4
  %26 = add nsw i32 %25, 1
  store i32 %26, i32* %5, align 4
  br label %12

27:                                               ; preds = %12
  br label %28

28:                                               ; preds = %27
  %29 = load i32, i32* %4, align 4
  %30 = add nsw i32 %29, 1
  store i32 %30, i32* %4, align 4
  br label %7

31:                                               ; preds = %7
  %32 = getelementptr inbounds [10 x [10 x i32]], [10 x [10 x i32]]* %1, i64 0, i64 0
  %33 = load i32, i32* %2, align 4
  %34 = load i32, i32* %3, align 4
  call void @findout([10 x i32]* %32, i32 %33, i32 %34)
  ret void
}

declare dso_local i32 @__isoc99_scanf(i8*, ...) #1

; Function Attrs: noinline nounwind uwtable
define dso_local void @findout([10 x i32]* %0, i32 %1, i32 %2) #0 {
  %4 = alloca [10 x i32]*, align 8
  %5 = alloca i32, align 4
  %6 = alloca i32, align 4
  %7 = alloca i32, align 4
  %8 = alloca i32, align 4
  %9 = alloca i32, align 4
  %10 = alloca i32, align 4
  %11 = alloca i32, align 4
  %12 = alloca i32, align 4
  %13 = alloca i32, align 4
  %14 = alloca i32, align 4
  %15 = alloca i32, align 4
  store [10 x i32]* %0, [10 x i32]** %4, align 8
  store i32 %1, i32* %5, align 4
  store i32 %2, i32* %6, align 4
  store i32 0, i32* %11, align 4
  store i32 1, i32* %12, align 4
  store i32 0, i32* %13, align 4
  store i32 0, i32* %14, align 4
  store i32 0, i32* %15, align 4
  store i32 0, i32* %9, align 4
  br label %16

16:                                               ; preds = %145, %3
  %17 = load i32, i32* %9, align 4
  %18 = load i32, i32* %5, align 4
  %19 = icmp slt i32 %17, %18
  br i1 %19, label %20, label %148

20:                                               ; preds = %16
  store i32 0, i32* %10, align 4
  %21 = load [10 x i32]*, [10 x i32]** %4, align 8
  %22 = load i32, i32* %9, align 4
  %23 = sext i32 %22 to i64
  %24 = getelementptr inbounds [10 x i32], [10 x i32]* %21, i64 %23
  %25 = load i32, i32* %10, align 4
  %26 = sext i32 %25 to i64
  %27 = getelementptr inbounds [10 x i32], [10 x i32]* %24, i64 0, i64 %26
  %28 = load i32, i32* %27, align 4
  store i32 %28, i32* %7, align 4
  br label %29

29:                                               ; preds = %54, %20
  %30 = load i32, i32* %10, align 4
  %31 = load i32, i32* %6, align 4
  %32 = icmp slt i32 %30, %31
  br i1 %32, label %33, label %57

33:                                               ; preds = %29
  %34 = load i32, i32* %7, align 4
  %35 = load [10 x i32]*, [10 x i32]** %4, align 8
  %36 = load i32, i32* %9, align 4
  %37 = sext i32 %36 to i64
  %38 = getelementptr inbounds [10 x i32], [10 x i32]* %35, i64 %37
  %39 = load i32, i32* %10, align 4
  %40 = sext i32 %39 to i64
  %41 = getelementptr inbounds [10 x i32], [10 x i32]* %38, i64 0, i64 %40
  %42 = load i32, i32* %41, align 4
  %43 = icmp slt i32 %34, %42
  br i1 %43, label %44, label %53

44:                                               ; preds = %33
  %45 = load [10 x i32]*, [10 x i32]** %4, align 8
  %46 = load i32, i32* %9, align 4
  %47 = sext i32 %46 to i64
  %48 = getelementptr inbounds [10 x i32], [10 x i32]* %45, i64 %47
  %49 = load i32, i32* %10, align 4
  %50 = sext i32 %49 to i64
  %51 = getelementptr inbounds [10 x i32], [10 x i32]* %48, i64 0, i64 %50
  %52 = load i32, i32* %51, align 4
  store i32 %52, i32* %7, align 4
  br label %53

53:                                               ; preds = %44, %33
  br label %54

54:                                               ; preds = %53
  %55 = load i32, i32* %10, align 4
  %56 = add nsw i32 %55, 1
  store i32 %56, i32* %10, align 4
  br label %29

57:                                               ; preds = %29
  store i32 0, i32* %10, align 4
  br label %58

58:                                               ; preds = %75, %57
  %59 = load i32, i32* %10, align 4
  %60 = load i32, i32* %6, align 4
  %61 = icmp slt i32 %59, %60
  br i1 %61, label %62, label %78

62:                                               ; preds = %58
  %63 = load i32, i32* %7, align 4
  %64 = load [10 x i32]*, [10 x i32]** %4, align 8
  %65 = load i32, i32* %9, align 4
  %66 = sext i32 %65 to i64
  %67 = getelementptr inbounds [10 x i32], [10 x i32]* %64, i64 %66
  %68 = load i32, i32* %10, align 4
  %69 = sext i32 %68 to i64
  %70 = getelementptr inbounds [10 x i32], [10 x i32]* %67, i64 0, i64 %69
  %71 = load i32, i32* %70, align 4
  %72 = icmp eq i32 %63, %71
  br i1 %72, label %73, label %74

73:                                               ; preds = %62
  br label %78

74:                                               ; preds = %62
  br label %75

75:                                               ; preds = %74
  %76 = load i32, i32* %10, align 4
  %77 = add nsw i32 %76, 1
  store i32 %77, i32* %10, align 4
  br label %58

78:                                               ; preds = %73, %58
  %79 = load i32, i32* %10, align 4
  store i32 %79, i32* %11, align 4
  store i32 0, i32* %12, align 4
  %80 = load [10 x i32]*, [10 x i32]** %4, align 8
  %81 = load i32, i32* %12, align 4
  %82 = sext i32 %81 to i64
  %83 = getelementptr inbounds [10 x i32], [10 x i32]* %80, i64 %82
  %84 = load i32, i32* %11, align 4
  %85 = sext i32 %84 to i64
  %86 = getelementptr inbounds [10 x i32], [10 x i32]* %83, i64 0, i64 %85
  %87 = load i32, i32* %86, align 4
  store i32 %87, i32* %8, align 4
  br label %88

88:                                               ; preds = %113, %78
  %89 = load i32, i32* %12, align 4
  %90 = load i32, i32* %5, align 4
  %91 = icmp slt i32 %89, %90
  br i1 %91, label %92, label %116

92:                                               ; preds = %88
  %93 = load i32, i32* %8, align 4
  %94 = load [10 x i32]*, [10 x i32]** %4, align 8
  %95 = load i32, i32* %12, align 4
  %96 = sext i32 %95 to i64
  %97 = getelementptr inbounds [10 x i32], [10 x i32]* %94, i64 %96
  %98 = load i32, i32* %11, align 4
  %99 = sext i32 %98 to i64
  %100 = getelementptr inbounds [10 x i32], [10 x i32]* %97, i64 0, i64 %99
  %101 = load i32, i32* %100, align 4
  %102 = icmp sgt i32 %93, %101
  br i1 %102, label %103, label %112

103:                                              ; preds = %92
  %104 = load [10 x i32]*, [10 x i32]** %4, align 8
  %105 = load i32, i32* %12, align 4
  %106 = sext i32 %105 to i64
  %107 = getelementptr inbounds [10 x i32], [10 x i32]* %104, i64 %106
  %108 = load i32, i32* %11, align 4
  %109 = sext i32 %108 to i64
  %110 = getelementptr inbounds [10 x i32], [10 x i32]* %107, i64 0, i64 %109
  %111 = load i32, i32* %110, align 4
  store i32 %111, i32* %8, align 4
  br label %112

112:                                              ; preds = %103, %92
  br label %113

113:                                              ; preds = %112
  %114 = load i32, i32* %12, align 4
  %115 = add nsw i32 %114, 1
  store i32 %115, i32* %12, align 4
  br label %88

116:                                              ; preds = %88
  store i32 0, i32* %12, align 4
  br label %117

117:                                              ; preds = %141, %116
  %118 = load i32, i32* %12, align 4
  %119 = load i32, i32* %5, align 4
  %120 = icmp slt i32 %118, %119
  br i1 %120, label %121, label %144

121:                                              ; preds = %117
  %122 = load i32, i32* %8, align 4
  %123 = load [10 x i32]*, [10 x i32]** %4, align 8
  %124 = load i32, i32* %12, align 4
  %125 = sext i32 %124 to i64
  %126 = getelementptr inbounds [10 x i32], [10 x i32]* %123, i64 %125
  %127 = load i32, i32* %11, align 4
  %128 = sext i32 %127 to i64
  %129 = getelementptr inbounds [10 x i32], [10 x i32]* %126, i64 0, i64 %128
  %130 = load i32, i32* %129, align 4
  %131 = icmp eq i32 %122, %130
  br i1 %131, label %132, label %140

132:                                              ; preds = %121
  %133 = load i32, i32* %12, align 4
  %134 = load i32, i32* %9, align 4
  %135 = icmp eq i32 %133, %134
  br i1 %135, label %136, label %139

136:                                              ; preds = %132
  store i32 1, i32* %13, align 4
  %137 = load i32, i32* %12, align 4
  store i32 %137, i32* %14, align 4
  %138 = load i32, i32* %11, align 4
  store i32 %138, i32* %15, align 4
  br label %144

139:                                              ; preds = %132
  br label %140

140:                                              ; preds = %139, %121
  br label %141

141:                                              ; preds = %140
  %142 = load i32, i32* %12, align 4
  %143 = add nsw i32 %142, 1
  store i32 %143, i32* %12, align 4
  br label %117

144:                                              ; preds = %136, %117
  br label %145

145:                                              ; preds = %144
  %146 = load i32, i32* %9, align 4
  %147 = add nsw i32 %146, 1
  store i32 %147, i32* %9, align 4
  br label %16

148:                                              ; preds = %16
  %149 = load i32, i32* %13, align 4
  %150 = icmp eq i32 %149, 1
  br i1 %150, label %151, label %155

151:                                              ; preds = %148
  %152 = load i32, i32* %14, align 4
  %153 = load i32, i32* %15, align 4
  %154 = call i32 (i8*, ...) @printf(i8* getelementptr inbounds ([7 x i8], [7 x i8]* @.str.2, i64 0, i64 0), i32 %152, i32 %153)
  br label %157

155:                                              ; preds = %148
  %156 = call i32 (i8*, ...) @printf(i8* getelementptr inbounds ([3 x i8], [3 x i8]* @.str.3, i64 0, i64 0))
  br label %157

157:                                              ; preds = %155, %151
  ret void
}

declare dso_local i32 @printf(i8*, ...) #1


!llvm.module.flags = !{!0}
!llvm.ident = !{!1}

!0 = !{i32 1, !"wchar_size", i32 4}
!1 = !{!"clang version 10.0.0-4ubuntu1 "}
